Certificate:
    Data:
        Version: 3 (0x2)
        Serial Number:
            5d:b8:47:f4:0b:b2:7c:1c:a6:89:3a:08:29:9d:d4:f7:78:f0:88:47
        Signature Algorithm: sha256WithRSAEncryption
        Issuer: C=US, ST=Georgia, L=Atlanta, O=redis-rb, OU=redis-cluster-client, CN=127.0.0.1
        Validity
            Not Before: Jun 18 04:53:32 2022 GMT
            Not After : Apr  7 04:53:32 2322 GMT
        Subject: C=US, ST=Georgia, O=redis-rb, OU=redis-cluster-client, CN=127.0.0.1
        Subject Public Key Info:
            Public Key Algorithm: rsaEncryption
                RSA Public-Key: (2048 bit)
                Modulus:
                    00:e7:a4:ea:8a:6b:e1:ea:5d:dc:af:71:dd:1e:7b:
                    51:a9:02:98:a4:87:b1:c8:37:9d:14:92:e3:00:34:
                    c6:a4:f5:e9:bb:8e:ad:0e:df:29:20:d8:88:9e:51:
                    0c:3e:48:a9:b5:7d:a8:18:62:69:53:c5:d0:ad:63:
                    61:13:9e:d1:79:49:d5:26:ef:d4:de:3a:89:4d:1f:
                    db:10:02:53:ab:6a:72:da:c4:ef:de:ac:fb:1b:ee:
                    80:7a:6a:08:22:b1:93:81:94:60:46:08:61:8f:cd:
                    66:dc:ef:8a:d4:44:b1:23:38:29:a9:66:5a:3f:c3:
                    90:44:f2:19:02:13:4f:85:20:ce:65:0c:69:03:fa:
                    e6:8d:ae:c1:7b:7e:e4:c6:f3:a8:dc:d7:87:a3:1c:
                    3d:88:2d:c1:08:62:bb:7e:cf:7e:10:7a:1e:a6:61:
                    a6:61:f7:9c:07:7c:dc:ca:32:fb:b5:45:9e:d8:fd:
                    6d:55:29:de:ad:c8:cf:7b:60:fc:18:40:8a:86:ec:
                    4c:55:99:73:22:89:cd:4e:bb:30:4d:69:f4:b3:b9:
                    22:87:6d:d0:d5:bf:a0:ce:60:bf:6c:d0:08:04:bd:
                    4d:69:e7:c1:e1:4c:36:16:9a:cf:eb:df:d3:83:28:
                    d9:8a:df:fc:03:3e:e6:94:d8:19:60:aa:77:74:49:
                    a9:15
                Exponent: 65537 (0x10001)
        X509v3 extensions:
            X509v3 Basic Constraints: 
                CA:FALSE
            Netscape Comment: 
                OpenSSL Generated Certificate
            X509v3 Subject Key Identifier: 
                B7:60:DA:08:B2:14:27:F4:CC:F3:E4:22:0D:4D:52:11:27:A0:ED:E8
            X509v3 Authority Key Identifier: 
                keyid:18:0A:C4:78:C4:09:C6:AC:93:65:B1:F0:00:E4:82:33:3F:15:3D:9A

    Signature Algorithm: sha256WithRSAEncryption
         44:00:7b:97:3f:9c:07:95:a7:3f:89:8f:7e:b3:b0:42:6a:b8:
         19:56:4b:17:50:0f:a1:a7:b6:6f:49:b8:55:ce:3b:3b:c8:47:
         25:d3:99:bb:da:6c:a5:b9:02:84:97:78:43:6e:33:25:a7:a5:
         ee:81:bd:b9:21:be:53:a0:ea:2b:e3:32:1f:31:8b:70:87:84:
         88:29:f2:3c:19:73:8b:e8:6c:8f:83:0d:0c:95:b4:29:48:62:
         81:d4:cd:89:21:53:2c:99:2c:d5:fb:f1:a6:4a:58:14:5e:b9:
         6d:68:f5:42:e6:47:3b:59:78:2a:b3:ee:01:6c:7d:8d:59:8a:
         07:7e:c8:90:95:46:46:11:98:3c:9f:9e:16:1a:ee:3d:23:e5:
         54:65:50:72:d2:bc:c4:b7:39:b3:53:85:1d:71:c5:d6:3d:a8:
         18:b5:ff:f1:33:29:2e:9f:56:b7:52:59:ee:b7:86:74:39:46:
         83:f4:12:f6:22:b5:ca:1d:64:44:dd:e4:8d:d8:8a:7b:6d:df:
         ae:d7:91:61:01:03:5c:41:3a:12:1a:98:ee:a9:60:14:83:af:
         5f:8e:1d:9e:ae:b0:21:ce:17:48:33:9e:c4:5b:16:f2:cc:15:
         04:ea:99:ca:9e:f6:c1:13:58:b9:c3:a0:11:bc:7f:06:ac:48:
         e9:ac:4f:b9
-----BEGIN CERTIFICATE-----
MIID5zCCAs+gAwIBAgIUXbhH9AuyfBymiToIKZ3U93jwiEcwDQYJKoZIhvcNAQEL
BQAwdzELMAkGA1UEBhMCVVMxEDAOBgNVBAgMB0dlb3JnaWExEDAOBgNVBAcMB0F0
bGFudGExETAPBgNVBAoMCHJlZGlzLXJiMR0wGwYDVQQLDBRyZWRpcy1jbHVzdGVy
LWNsaWVudDESMBAGA1UEAwwJMTI3LjAuMC4xMCAXDTIyMDYxODA0NTMzMloYDzIz
MjIwNDA3MDQ1MzMyWjBlMQswCQYDVQQGEwJVUzEQMA4GA1UECAwHR2VvcmdpYTER
MA8GA1UECgwIcmVkaXMtcmIxHTAbBgNVBAsMFHJlZGlzLWNsdXN0ZXItY2xpZW50
MRIwEAYDVQQDDAkxMjcuMC4wLjEwggEiMA0GCSqGSIb3DQEBAQUAA4IBDwAwggEK
AoIBAQDnpOqKa+HqXdyvcd0ee1GpApikh7HIN50UkuMANMak9em7jq0O3ykg2Iie
UQw+SKm1fagYYmlTxdCtY2ETntF5SdUm79TeOolNH9sQAlOranLaxO/erPsb7oB6
aggisZOBlGBGCGGPzWbc74rURLEjOCmpZlo/w5BE8hkCE0+FIM5lDGkD+uaNrsF7
fuTG86jc14ejHD2ILcEIYrt+z34Qeh6mYaZh95wHfNzKMvu1RZ7Y/W1VKd6tyM97
YPwYQIqG7ExVmXMiic1OuzBNafSzuSKHbdDVv6DOYL9s0AgEvU1p58HhTDYWms/r
39ODKNmK3/wDPuaU2Blgqnd0SakVAgMBAAGjezB5MAkGA1UdEwQCMAAwLAYJYIZI
AYb4QgENBB8WHU9wZW5TU0wgR2VuZXJhdGVkIENlcnRpZmljYXRlMB0GA1UdDgQW
BBS3YNoIshQn9Mzz5CINTVIRJ6Dt6DAfBgNVHSMEGDAWgBQYCsR4xAnGrJNlsfAA
5IIzPxU9mjANBgkqhkiG9w0BAQsFAAOCAQEARAB7lz+cB5WnP4mPfrOwQmq4GVZL
F1APoae2b0m4Vc47O8hHJdOZu9pspbkChJd4Q24zJael7oG9uSG+U6DqK+MyHzGL
cIeEiCnyPBlzi+hsj4MNDJW0KUhigdTNiSFTLJks1fvxpkpYFF65bWj1QuZHO1l4
KrPuAWx9jVmKB37IkJVGRhGYPJ+eFhruPSPlVGVQctK8xLc5s1OFHXHF1j2oGLX/
8TMpLp9Wt1JZ7reGdDlGg/QS9iK1yh1kRN3kjdiKe23frteRYQEDXEE6EhqY7qlg
FIOvX44dnq6wIc4XSDOexFsW8swVBOqZyp72wRNYucOgEbx/BqxI6axPuQ==
-----END CERTIFICATE-----
